; Function Attrs: mustprogress nounwind uwtable
define dso_local void @_ZN4llvm14DIObjCPropertyC2ERNS_11LLVMContextENS_8Metadata11StorageTypeEjjNS_8ArrayRefIPS3_EE(ptr noundef nonnull align 8 dereferenceable(24) %0, ptr noundef nonnull align 8 dereferenceable(8) %1, i32 noundef %2, i32 noundef %3, i32 noundef %4, ptr nocapture noundef readonly byval(%"class.llvm::ArrayRef") align 8 %5) unnamed_addr #0 align 2 {
  %7 = alloca %"class.llvm::ArrayRef", align 8
  %.sroa.04.0.copyload = load ptr, ptr %5, align 8
  %.sroa.2.0..sroa_idx = getelementptr inbounds i8, ptr %5, i64 8
  %.sroa.2.0.copyload = load i64, ptr %.sroa.2.0..sroa_idx, align 8
  call void @llvm.lifetime.start.p0(i64 16, ptr nonnull %7)
  call void @llvm.memset.p0.i64(ptr noundef nonnull align 8 dereferenceable(16) %7, i8 0, i64 16, i1 false)
  tail call void @_ZN4llvm6MDNodeC2ERNS_11LLVMContextEjNS_8Metadata11StorageTypeENS_8ArrayRefIPS3_EES7_(ptr noundef nonnull align 8 dereferenceable(16) %0, ptr noundef nonnull align 8 dereferenceable(8) %1, i32 noundef 28, i32 noundef %2, ptr %.sroa.04.0.copyload, i64 %.sroa.2.0.copyload, ptr noundef nonnull byval(%"class.llvm::ArrayRef") align 8 %7) #24
  %8 = getelementptr inbounds nuw i8, ptr %0, i64 2
  store i16 16896, ptr %8, align 2
  call void @llvm.lifetime.end.p0(i64 16, ptr nonnull %7)
  %9 = getelementptr inbounds nuw i8, ptr %0, i64 16
  store i32 %3, ptr %9, align 8
  %10 = getelementptr inbounds nuw i8, ptr %0, i64 20
  store i32 %4, ptr %10, align 4
  ret void
}